; Function Attrs: nounwind memory(argmem: readwrite) uwtable
define void @ossl_ml_dsa_poly_ntt_mult(ptr noundef readonly captures(none) %0, ptr noundef readonly captures(none) %1, ptr noundef writeonly captures(none) %2) local_unnamed_addr #0 {
  br label %4

4:                                                ; preds = %3, %4
  %indvars.iv = phi i64 [ 0, %3 ], [ %indvars.iv.next, %4 ]
  %5 = getelementptr inbounds nuw [256 x i32], ptr %0, i64 0, i64 %indvars.iv
  %6 = load i32, ptr %5, align 4, !tbaa !3
  %7 = zext i32 %6 to i64
  %8 = getelementptr inbounds nuw [256 x i32], ptr %1, i64 0, i64 %indvars.iv
  %9 = load i32, ptr %8, align 4, !tbaa !3
  %10 = zext i32 %9 to i64
  %11 = mul nuw i64 %10, %7
  %12 = mul i64 %11, 4236238847
  %13 = and i64 %12, 4294967295
  %14 = mul nuw nsw i64 %13, 8380417
  %15 = add i64 %14, %11
  %16 = lshr i64 %15, 32
  %17 = trunc nuw i64 %16 to i32
  %18 = add i32 %17, -8380417
  %19 = xor i32 %17, -1
  %20 = and i32 %18, %19
  %.neg.i.i.i.i = ashr i32 %20, 31
  %21 = tail call i32 asm "", "=r,0,~{dirflag},~{fpsr},~{flags}"(i32 range(i32 -1, 1) %.neg.i.i.i.i) #1, !srcloc !7
  %22 = and i32 %21, %17
  %23 = xor i32 %.neg.i.i.i.i, -1
  %24 = tail call i32 asm "", "=r,0,~{dirflag},~{fpsr},~{flags}"(i32 range(i32 -1, 1) %23) #1, !srcloc !7
  %25 = and i32 %18, %24
  %26 = or i32 %25, %22
  %27 = getelementptr inbounds nuw [256 x i32], ptr %2, i64 0, i64 %indvars.iv
  store i32 %26, ptr %27, align 4, !tbaa !3
  %indvars.iv.next = add nuw nsw i64 %indvars.iv, 1
  %exitcond.not = icmp eq i64 %indvars.iv.next, 256
  br i1 %exitcond.not, label %28, label %4, !llvm.loop !8

28:                                               ; preds = %4
  ret void
}